target datalayout = "e-m:e-p270:32:32-p271:32:32-p272:64:64-i64:64-i128:128-f80:128-n8:16:32:64-S128"
target triple = "x86_64-unknown-linux-gnu"

%struct.typeInterface = type { ptr, ptr, ptr, ptr, ptr }
%struct.standardConfig = type { ptr, ptr, i32, %struct.typeInterface, %union.typeData, i32, ptr }
%union.typeData = type { %struct.numericConfigData }
%struct.numericConfigData = type { %union.anon, i32, i32, i64, i64, i64, ptr }
%union.anon = type { ptr }

@.str.390 = private unnamed_addr constant [5 x i8] c"%llo\00", align 1

; Function Attrs: nounwind uwtable
define internal ptr @numericConfigGet(ptr noundef %config) #0 {
entry:
  %config.addr = alloca ptr, align 8
  %buf = alloca [128 x i8], align 16
  %value = alloca i64, align 8
  %len = alloca i32, align 4
  store ptr %config, ptr %config.addr, align 8
  store i64 0, ptr %value, align 8
  %0 = load ptr, ptr %config.addr, align 8
  %data = getelementptr inbounds %struct.standardConfig, ptr %0, i32 0, i32 4
  %numeric_type = getelementptr inbounds %struct.numericConfigData, ptr %data, i32 0, i32 2
  %1 = load i32, ptr %numeric_type, align 4
  %cmp = icmp eq i32 %1, 0
  br i1 %cmp, label %if.then, label %if.else

if.then:                                          ; preds = %entry
  %2 = load ptr, ptr %config.addr, align 8
  %data1 = getelementptr inbounds %struct.standardConfig, ptr %2, i32 0, i32 4
  %config2 = getelementptr inbounds %struct.numericConfigData, ptr %data1, i32 0, i32 0
  %3 = load ptr, ptr %config2, align 8
  %4 = load i32, ptr %3, align 4
  %conv = sext i32 %4 to i64
  store i64 %conv, ptr %value, align 8
  br label %if.end87

if.else:                                          ; preds = %entry
  %5 = load ptr, ptr %config.addr, align 8
  %data3 = getelementptr inbounds %struct.standardConfig, ptr %5, i32 0, i32 4
  %numeric_type4 = getelementptr inbounds %struct.numericConfigData, ptr %data3, i32 0, i32 2
  %6 = load i32, ptr %numeric_type4, align 4
  %cmp5 = icmp eq i32 %6, 1
  br i1 %cmp5, label %if.then7, label %if.else11

if.then7:                                         ; preds = %if.else
  %7 = load ptr, ptr %config.addr, align 8
  %data8 = getelementptr inbounds %struct.standardConfig, ptr %7, i32 0, i32 4
  %config9 = getelementptr inbounds %struct.numericConfigData, ptr %data8, i32 0, i32 0
  %8 = load ptr, ptr %config9, align 8
  %9 = load i32, ptr %8, align 4
  %conv10 = zext i32 %9 to i64
  store i64 %conv10, ptr %value, align 8
  br label %if.end86

if.else11:                                        ; preds = %if.else
  %10 = load ptr, ptr %config.addr, align 8
  %data12 = getelementptr inbounds %struct.standardConfig, ptr %10, i32 0, i32 4
  %numeric_type13 = getelementptr inbounds %struct.numericConfigData, ptr %data12, i32 0, i32 2
  %11 = load i32, ptr %numeric_type13, align 4
  %cmp14 = icmp eq i32 %11, 2
  br i1 %cmp14, label %if.then16, label %if.else19

if.then16:                                        ; preds = %if.else11
  %12 = load ptr, ptr %config.addr, align 8
  %data17 = getelementptr inbounds %struct.standardConfig, ptr %12, i32 0, i32 4
  %config18 = getelementptr inbounds %struct.numericConfigData, ptr %data17, i32 0, i32 0
  %13 = load ptr, ptr %config18, align 8
  %14 = load i64, ptr %13, align 8
  store i64 %14, ptr %value, align 8
  br label %if.end85

if.else19:                                        ; preds = %if.else11
  %15 = load ptr, ptr %config.addr, align 8
  %data20 = getelementptr inbounds %struct.standardConfig, ptr %15, i32 0, i32 4
  %numeric_type21 = getelementptr inbounds %struct.numericConfigData, ptr %data20, i32 0, i32 2
  %16 = load i32, ptr %numeric_type21, align 4
  %cmp22 = icmp eq i32 %16, 3
  br i1 %cmp22, label %if.then24, label %if.else27

if.then24:                                        ; preds = %if.else19
  %17 = load ptr, ptr %config.addr, align 8
  %data25 = getelementptr inbounds %struct.standardConfig, ptr %17, i32 0, i32 4
  %config26 = getelementptr inbounds %struct.numericConfigData, ptr %data25, i32 0, i32 0
  %18 = load ptr, ptr %config26, align 8
  %19 = load i64, ptr %18, align 8
  store i64 %19, ptr %value, align 8
  br label %if.end84

if.else27:                                        ; preds = %if.else19
  %20 = load ptr, ptr %config.addr, align 8
  %data28 = getelementptr inbounds %struct.standardConfig, ptr %20, i32 0, i32 4
  %numeric_type29 = getelementptr inbounds %struct.numericConfigData, ptr %data28, i32 0, i32 2
  %21 = load i32, ptr %numeric_type29, align 4
  %cmp30 = icmp eq i32 %21, 4
  br i1 %cmp30, label %if.then32, label %if.else38

if.then32:                                        ; preds = %if.else27
  %22 = load ptr, ptr %config.addr, align 8
  %flags = getelementptr inbounds %struct.standardConfig, ptr %22, i32 0, i32 2
  %23 = load i32, ptr %flags, align 8
  %conv33 = zext i32 %23 to i64
  %and = and i64 %conv33, 256
  %tobool = icmp ne i64 %and, 0
  br i1 %tobool, label %if.then34, label %if.else35

if.then34:                                        ; preds = %if.then32
  %24 = load ptr, ptr %config.addr, align 8
  %privdata = getelementptr inbounds %struct.standardConfig, ptr %24, i32 0, i32 6
  %25 = load ptr, ptr %privdata, align 8
  %call = call i64 @getModuleNumericConfig(ptr noundef %25)
  store i64 %call, ptr %value, align 8
  br label %if.end

if.else35:                                        ; preds = %if.then32
  %26 = load ptr, ptr %config.addr, align 8
  %data36 = getelementptr inbounds %struct.standardConfig, ptr %26, i32 0, i32 4
  %config37 = getelementptr inbounds %struct.numericConfigData, ptr %data36, i32 0, i32 0
  %27 = load ptr, ptr %config37, align 8
  %28 = load i64, ptr %27, align 8
  store i64 %28, ptr %value, align 8
  br label %if.end

if.end:                                           ; preds = %if.else35, %if.then34
  br label %if.end83

if.else38:                                        ; preds = %if.else27
  %29 = load ptr, ptr %config.addr, align 8
  %data39 = getelementptr inbounds %struct.standardConfig, ptr %29, i32 0, i32 4
  %numeric_type40 = getelementptr inbounds %struct.numericConfigData, ptr %data39, i32 0, i32 2
  %30 = load i32, ptr %numeric_type40, align 4
  %cmp41 = icmp eq i32 %30, 5
  br i1 %cmp41, label %if.then43, label %if.else46

if.then43:                                        ; preds = %if.else38
  %31 = load ptr, ptr %config.addr, align 8
  %data44 = getelementptr inbounds %struct.standardConfig, ptr %31, i32 0, i32 4
  %config45 = getelementptr inbounds %struct.numericConfigData, ptr %data44, i32 0, i32 0
  %32 = load ptr, ptr %config45, align 8
  %33 = load i64, ptr %32, align 8
  store i64 %33, ptr %value, align 8
  br label %if.end82

if.else46:                                        ; preds = %if.else38
  %34 = load ptr, ptr %config.addr, align 8
  %data47 = getelementptr inbounds %struct.standardConfig, ptr %34, i32 0, i32 4
  %numeric_type48 = getelementptr inbounds %struct.numericConfigData, ptr %data47, i32 0, i32 2
  %35 = load i32, ptr %numeric_type48, align 4
  %cmp49 = icmp eq i32 %35, 6
  br i1 %cmp49, label %if.then51, label %if.else54

if.then51:                                        ; preds = %if.else46
  %36 = load ptr, ptr %config.addr, align 8
  %data52 = getelementptr inbounds %struct.standardConfig, ptr %36, i32 0, i32 4
  %config53 = getelementptr inbounds %struct.numericConfigData, ptr %data52, i32 0, i32 0
  %37 = load ptr, ptr %config53, align 8
  %38 = load i64, ptr %37, align 8
  store i64 %38, ptr %value, align 8
  br label %if.end81

if.else54:                                        ; preds = %if.else46
  %39 = load ptr, ptr %config.addr, align 8
  %data55 = getelementptr inbounds %struct.standardConfig, ptr %39, i32 0, i32 4
  %numeric_type56 = getelementptr inbounds %struct.numericConfigData, ptr %data55, i32 0, i32 2
  %40 = load i32, ptr %numeric_type56, align 4
  %cmp57 = icmp eq i32 %40, 7
  br i1 %cmp57, label %if.then59, label %if.else62

if.then59:                                        ; preds = %if.else54
  %41 = load ptr, ptr %config.addr, align 8
  %data60 = getelementptr inbounds %struct.standardConfig, ptr %41, i32 0, i32 4
  %config61 = getelementptr inbounds %struct.numericConfigData, ptr %data60, i32 0, i32 0
  %42 = load ptr, ptr %config61, align 8
  %43 = load i64, ptr %42, align 8
  store i64 %43, ptr %value, align 8
  br label %if.end80

if.else62:                                        ; preds = %if.else54
  %44 = load ptr, ptr %config.addr, align 8
  %data63 = getelementptr inbounds %struct.standardConfig, ptr %44, i32 0, i32 4
  %numeric_type64 = getelementptr inbounds %struct.numericConfigData, ptr %data63, i32 0, i32 2
  %45 = load i32, ptr %numeric_type64, align 4
  %cmp65 = icmp eq i32 %45, 8
  br i1 %cmp65, label %if.then67, label %if.else70

if.then67:                                        ; preds = %if.else62
  %46 = load ptr, ptr %config.addr, align 8
  %data68 = getelementptr inbounds %struct.standardConfig, ptr %46, i32 0, i32 4
  %config69 = getelementptr inbounds %struct.numericConfigData, ptr %data68, i32 0, i32 0
  %47 = load ptr, ptr %config69, align 8
  %48 = load i64, ptr %47, align 8
  store i64 %48, ptr %value, align 8
  br label %if.end79

if.else70:                                        ; preds = %if.else62
  %49 = load ptr, ptr %config.addr, align 8
  %data71 = getelementptr inbounds %struct.standardConfig, ptr %49, i32 0, i32 4
  %numeric_type72 = getelementptr inbounds %struct.numericConfigData, ptr %data71, i32 0, i32 2
  %50 = load i32, ptr %numeric_type72, align 4
  %cmp73 = icmp eq i32 %50, 9
  br i1 %cmp73, label %if.then75, label %if.end78

if.then75:                                        ; preds = %if.else70
  %51 = load ptr, ptr %config.addr, align 8
  %data76 = getelementptr inbounds %struct.standardConfig, ptr %51, i32 0, i32 4
  %config77 = getelementptr inbounds %struct.numericConfigData, ptr %data76, i32 0, i32 0
  %52 = load ptr, ptr %config77, align 8
  %53 = load i64, ptr %52, align 8
  store i64 %53, ptr %value, align 8
  br label %if.end78

if.end78:                                         ; preds = %if.then75, %if.else70
  br label %if.end79

if.end79:                                         ; preds = %if.end78, %if.then67
  br label %if.end80

if.end80:                                         ; preds = %if.end79, %if.then59
  br label %if.end81

if.end81:                                         ; preds = %if.end80, %if.then51
  br label %if.end82

if.end82:                                         ; preds = %if.end81, %if.then43
  br label %if.end83

if.end83:                                         ; preds = %if.end82, %if.end
  br label %if.end84

if.end84:                                         ; preds = %if.end83, %if.then24
  br label %if.end85

if.end85:                                         ; preds = %if.end84, %if.then16
  br label %if.end86

if.end86:                                         ; preds = %if.end85, %if.then7
  br label %if.end87

if.end87:                                         ; preds = %if.end86, %if.then
  %54 = load ptr, ptr %config.addr, align 8
  %data88 = getelementptr inbounds %struct.standardConfig, ptr %54, i32 0, i32 4
  %flags89 = getelementptr inbounds %struct.numericConfigData, ptr %data88, i32 0, i32 1
  %55 = load i32, ptr %flags89, align 8
  %and90 = and i32 %55, 2
  %tobool91 = icmp ne i32 %and90, 0
  br i1 %tobool91, label %land.lhs.true, label %if.else98

land.lhs.true:                                    ; preds = %if.end87
  %56 = load i64, ptr %value, align 8
  %cmp92 = icmp slt i64 %56, 0
  br i1 %cmp92, label %if.then94, label %if.else98

if.then94:                                        ; preds = %land.lhs.true
  %arraydecay = getelementptr inbounds [128 x i8], ptr %buf, i64 0, i64 0
  %57 = load i64, ptr %value, align 8
  %sub = sub nsw i64 0, %57
  %call95 = call i32 @ll2string(ptr noundef %arraydecay, i64 noundef 128, i64 noundef %sub)
  store i32 %call95, ptr %len, align 4
  %58 = load i32, ptr %len, align 4
  %idxprom = sext i32 %58 to i64
  %arrayidx = getelementptr inbounds [128 x i8], ptr %buf, i64 0, i64 %idxprom
  store i8 37, ptr %arrayidx, align 1
  %59 = load i32, ptr %len, align 4
  %add = add nsw i32 %59, 1
  %idxprom96 = sext i32 %add to i64
  %arrayidx97 = getelementptr inbounds [128 x i8], ptr %buf, i64 0, i64 %idxprom96
  store i8 0, ptr %arrayidx97, align 1
  br label %if.end119

if.else98:                                        ; preds = %land.lhs.true, %if.end87
  %60 = load ptr, ptr %config.addr, align 8
  %data99 = getelementptr inbounds %struct.standardConfig, ptr %60, i32 0, i32 4
  %flags100 = getelementptr inbounds %struct.numericConfigData, ptr %data99, i32 0, i32 1
  %61 = load i32, ptr %flags100, align 8
  %and101 = and i32 %61, 1
  %tobool102 = icmp ne i32 %and101, 0
  br i1 %tobool102, label %if.then103, label %if.else106

if.then103:                                       ; preds = %if.else98
  %arraydecay104 = getelementptr inbounds [128 x i8], ptr %buf, i64 0, i64 0
  %62 = load i64, ptr %value, align 8
  %call105 = call i32 @ull2string(ptr noundef %arraydecay104, i64 noundef 128, i64 noundef %62)
  br label %if.end118

if.else106:                                       ; preds = %if.else98
  %63 = load ptr, ptr %config.addr, align 8
  %data107 = getelementptr inbounds %struct.standardConfig, ptr %63, i32 0, i32 4
  %flags108 = getelementptr inbounds %struct.numericConfigData, ptr %data107, i32 0, i32 1
  %64 = load i32, ptr %flags108, align 8
  %and109 = and i32 %64, 4
  %tobool110 = icmp ne i32 %and109, 0
  br i1 %tobool110, label %if.then111, label %if.else114

if.then111:                                       ; preds = %if.else106
  %arraydecay112 = getelementptr inbounds [128 x i8], ptr %buf, i64 0, i64 0
  %65 = load i64, ptr %value, align 8
  %call113 = call i32 (ptr, i64, ptr, ...) @snprintf(ptr noundef %arraydecay112, i64 noundef 128, ptr noundef @.str.390, i64 noundef %65) #14
  br label %if.end117

if.else114:                                       ; preds = %if.else106
  %arraydecay115 = getelementptr inbounds [128 x i8], ptr %buf, i64 0, i64 0
  %66 = load i64, ptr %value, align 8
  %call116 = call i32 @ll2string(ptr noundef %arraydecay115, i64 noundef 128, i64 noundef %66)
  br label %if.end117

if.end117:                                        ; preds = %if.else114, %if.then111
  br label %if.end118

if.end118:                                        ; preds = %if.end117, %if.then103
  br label %if.end119

if.end119:                                        ; preds = %if.end118, %if.then94
  %arraydecay120 = getelementptr inbounds [128 x i8], ptr %buf, i64 0, i64 0
  %call121 = call ptr @sdsnew(ptr noundef %arraydecay120)
  ret ptr %call121
}