; Function Attrs: nounwind uwtable
define internal ptr @numericConfigGet(ptr nocapture noundef readonly %config) #2 {
entry:
  %buf = alloca [128 x i8], align 16
  %data = getelementptr inbounds i8, ptr %config, i64 64
  %numeric_type = getelementptr inbounds i8, ptr %config, i64 76
  %0 = load i32, ptr %numeric_type, align 4
  switch i32 %0, label %if.end87.thread [
    i32 0, label %if.then
    i32 1, label %if.then7
    i32 2, label %if.then16
    i32 3, label %if.then24
    i32 4, label %if.then32
    i32 5, label %if.then43
    i32 6, label %if.then51
    i32 7, label %if.then59
    i32 8, label %if.then67
    i32 9, label %if.then75
  ]

if.then:                                          ; preds = %entry
  %1 = load ptr, ptr %data, align 8
  %2 = load i32, ptr %1, align 4
  %conv = sext i32 %2 to i64
  br label %if.end87

if.then7:                                         ; preds = %entry
  %3 = load ptr, ptr %data, align 8
  %4 = load i32, ptr %3, align 4
  %conv10 = zext i32 %4 to i64
  br label %if.end87.thread

if.then16:                                        ; preds = %entry
  %5 = load ptr, ptr %data, align 8
  %6 = load i64, ptr %5, align 8
  br label %if.end87

if.then24:                                        ; preds = %entry
  %7 = load ptr, ptr %data, align 8
  %8 = load i64, ptr %7, align 8
  br label %if.end87

if.then32:                                        ; preds = %entry
  %flags = getelementptr inbounds i8, ptr %config, i64 16
  %9 = load i32, ptr %flags, align 8
  %10 = and i32 %9, 256
  %tobool.not = icmp eq i32 %10, 0
  br i1 %tobool.not, label %if.else35, label %if.then34

if.then34:                                        ; preds = %if.then32
  %privdata = getelementptr inbounds i8, ptr %config, i64 120
  %11 = load ptr, ptr %privdata, align 8
  %call = tail call i64 @getModuleNumericConfig(ptr noundef %11) #24
  br label %if.end87

if.else35:                                        ; preds = %if.then32
  %12 = load ptr, ptr %data, align 8
  %13 = load i64, ptr %12, align 8
  br label %if.end87

if.then43:                                        ; preds = %entry
  %14 = load ptr, ptr %data, align 8
  %15 = load i64, ptr %14, align 8
  br label %if.end87

if.then51:                                        ; preds = %entry
  %16 = load ptr, ptr %data, align 8
  %17 = load i64, ptr %16, align 8
  br label %if.end87

if.then59:                                        ; preds = %entry
  %18 = load ptr, ptr %data, align 8
  %19 = load i64, ptr %18, align 8
  br label %if.end87

if.then67:                                        ; preds = %entry
  %20 = load ptr, ptr %data, align 8
  %21 = load i64, ptr %20, align 8
  br label %if.end87

if.then75:                                        ; preds = %entry
  %22 = load ptr, ptr %data, align 8
  %23 = load i64, ptr %22, align 8
  br label %if.end87

if.end87.thread:                                  ; preds = %if.then7, %entry
  %value.0.ph = phi i64 [ 0, %entry ], [ %conv10, %if.then7 ]
  %flags8931 = getelementptr inbounds i8, ptr %config, i64 72
  %24 = load i32, ptr %flags8931, align 8
  br label %if.else98

if.end87:                                         ; preds = %if.then24, %if.then43, %if.then59, %if.then75, %if.then67, %if.then51, %if.then34, %if.else35, %if.then16, %if.then
  %value.0 = phi i64 [ %conv, %if.then ], [ %6, %if.then16 ], [ %8, %if.then24 ], [ %call, %if.then34 ], [ %13, %if.else35 ], [ %15, %if.then43 ], [ %17, %if.then51 ], [ %19, %if.then59 ], [ %21, %if.then67 ], [ %23, %if.then75 ]
  %flags89 = getelementptr inbounds i8, ptr %config, i64 72
  %25 = load i32, ptr %flags89, align 8
  %and90 = and i32 %25, 2
  %tobool91 = icmp ne i32 %and90, 0
  %cmp92 = icmp slt i64 %value.0, 0
  %or.cond = select i1 %tobool91, i1 %cmp92, i1 false
  br i1 %or.cond, label %if.then94, label %if.else98

if.then94:                                        ; preds = %if.end87
  %sub = sub nsw i64 0, %value.0
  %call95 = call i32 @ll2string(ptr noundef nonnull %buf, i64 noundef 128, i64 noundef %sub) #24
  %idxprom = sext i32 %call95 to i64
  %arrayidx = getelementptr inbounds [128 x i8], ptr %buf, i64 0, i64 %idxprom
  store i8 37, ptr %arrayidx, align 1
  %add = add nsw i32 %call95, 1
  %idxprom96 = sext i32 %add to i64
  %arrayidx97 = getelementptr inbounds [128 x i8], ptr %buf, i64 0, i64 %idxprom96
  store i8 0, ptr %arrayidx97, align 1
  br label %if.end119

if.else98:                                        ; preds = %if.end87.thread, %if.end87
  %26 = phi i32 [ %24, %if.end87.thread ], [ %25, %if.end87 ]
  %value.036 = phi i64 [ %value.0.ph, %if.end87.thread ], [ %value.0, %if.end87 ]
  %and101 = and i32 %26, 1
  %tobool102.not = icmp eq i32 %and101, 0
  br i1 %tobool102.not, label %if.else106, label %if.then103

if.then103:                                       ; preds = %if.else98
  %call105 = call i32 @ull2string(ptr noundef nonnull %buf, i64 noundef 128, i64 noundef %value.036) #24
  br label %if.end119

if.else106:                                       ; preds = %if.else98
  %and109 = and i32 %26, 4
  %tobool110.not = icmp eq i32 %and109, 0
  br i1 %tobool110.not, label %if.else114, label %if.then111

if.then111:                                       ; preds = %if.else106
  %call113 = call i32 (ptr, i64, ptr, ...) @snprintf(ptr noundef nonnull dereferenceable(1) %buf, i64 noundef 128, ptr noundef nonnull @.str.390, i64 noundef %value.036) #24
  br label %if.end119

if.else114:                                       ; preds = %if.else106
  %call116 = call i32 @ll2string(ptr noundef nonnull %buf, i64 noundef 128, i64 noundef %value.036) #24
  br label %if.end119

if.end119:                                        ; preds = %if.then103, %if.else114, %if.then111, %if.then94
  %call121 = call ptr @sdsnew(ptr noundef nonnull %buf) #24
  ret ptr %call121
}